target datalayout = "e-m:e-p270:32:32-p271:32:32-p272:64:64-i64:64-i128:128-f80:128-n8:16:32:64-S128"
target triple = "x86_64-pc-linux-gnu"

%struct._zend_accel_globals = type { i8, i8, i8, i8, i8, %struct._zend_accel_directives, ptr, ptr, [32 x i8], [32 x i8], i32, i8, i32, i8, i32, i64, i64, %struct._zend_array, i64, ptr, ptr, ptr, ptr, %struct._zend_string, [32768 x i8] }
%struct._zend_accel_directives = type { i64, i64, double, ptr, i64, i8, i8, i8, i8, i8, i8, i8, i8, i8, i8, i8, i64, i64, ptr, ptr, i64, i64, i64, i64, i64, ptr, ptr, ptr, i8, i8, i8, ptr, ptr }
%struct._zend_array = type { %struct._zend_refcounted_h, %union.anon.0, i32, %union.anon.1, i32, i32, i32, i32, i64, ptr }
%struct._zend_refcounted_h = type { i32, %union.anon }
%union.anon = type { i32 }
%union.anon.0 = type { i32 }
%union.anon.1 = type { ptr }
%struct._zend_string = type { %struct._zend_refcounted_h, i64, i64, [1 x i8] }
%struct._zend_accel_hash = type { ptr, ptr, i32, i32, i32 }
%struct._zend_accel_hash_entry = type { i64, ptr, ptr, ptr, i8 }

@accel_globals = external global %struct._zend_accel_globals, align 8

; Function Attrs: nounwind uwtable
define hidden ptr @zend_accel_hash_update(ptr noundef %0, ptr noundef %1, i1 noundef zeroext %2, ptr noundef %3) #0 {
  %5 = alloca ptr, align 8
  %6 = alloca ptr, align 8
  %7 = alloca ptr, align 8
  %8 = alloca ptr, align 8
  %9 = alloca ptr, align 8
  %10 = alloca ptr, align 8
  %11 = alloca ptr, align 8
  %12 = alloca ptr, align 8
  %13 = alloca i8, align 1
  %14 = alloca ptr, align 8
  %15 = alloca i64, align 8
  %16 = alloca i64, align 8
  %17 = alloca ptr, align 8
  %18 = alloca ptr, align 8
  store ptr %0, ptr %11, align 8
  store ptr %1, ptr %12, align 8
  %19 = zext i1 %2 to i8
  store i8 %19, ptr %13, align 1
  store ptr %3, ptr %14, align 8
  store ptr null, ptr %18, align 8
  %20 = load i8, ptr %13, align 1
  %21 = trunc i8 %20 to i1
  br i1 %21, label %22, label %34

22:                                               ; preds = %4
  %23 = load ptr, ptr %14, align 8
  store ptr %23, ptr %18, align 8
  br label %24

24:                                               ; preds = %29, %22
  %25 = load ptr, ptr %18, align 8
  %26 = getelementptr inbounds %struct._zend_accel_hash_entry, ptr %25, i32 0, i32 4
  %27 = load i8, ptr %26, align 8
  %28 = trunc i8 %27 to i1
  br i1 %28, label %29, label %33

29:                                               ; preds = %24
  %30 = load ptr, ptr %18, align 8
  %31 = getelementptr inbounds %struct._zend_accel_hash_entry, ptr %30, i32 0, i32 3
  %32 = load ptr, ptr %31, align 8
  store ptr %32, ptr %18, align 8
  br label %24

33:                                               ; preds = %24
  br label %34

34:                                               ; preds = %33, %4
  %35 = load ptr, ptr %12, align 8
  store ptr %35, ptr %9, align 8
  %36 = load ptr, ptr %9, align 8
  %37 = getelementptr inbounds %struct._zend_string, ptr %36, i32 0, i32 1
  %38 = load i64, ptr %37, align 8
  %39 = icmp ne i64 %38, 0
  br i1 %39, label %40, label %44

40:                                               ; preds = %34
  %41 = load ptr, ptr %9, align 8
  %42 = getelementptr inbounds %struct._zend_string, ptr %41, i32 0, i32 1
  %43 = load i64, ptr %42, align 8
  br label %47

44:                                               ; preds = %34
  %45 = load ptr, ptr %9, align 8
  %46 = call i64 @zend_string_hash_func(ptr noundef %45) #5
  br label %47

47:                                               ; preds = %44, %40
  %48 = phi i64 [ %43, %40 ], [ %46, %44 ]
  store i64 %48, ptr %15, align 8
  %49 = load i64, ptr getelementptr inbounds (%struct._zend_accel_globals, ptr @accel_globals, i32 0, i32 18), align 8
  %50 = load i64, ptr %15, align 8
  %51 = xor i64 %50, %49
  store i64 %51, ptr %15, align 8
  %52 = load i64, ptr %15, align 8
  %53 = load ptr, ptr %11, align 8
  %54 = getelementptr inbounds %struct._zend_accel_hash, ptr %53, i32 0, i32 3
  %55 = load i32, ptr %54, align 4
  %56 = zext i32 %55 to i64
  %57 = urem i64 %52, %56
  store i64 %57, ptr %16, align 8
  %58 = load ptr, ptr %11, align 8
  %59 = getelementptr inbounds %struct._zend_accel_hash, ptr %58, i32 0, i32 0
  %60 = load ptr, ptr %59, align 8
  %61 = load i64, ptr %16, align 8
  %62 = getelementptr inbounds ptr, ptr %60, i64 %61
  %63 = load ptr, ptr %62, align 8
  store ptr %63, ptr %17, align 8
  br label %64

64:                                               ; preds = %138, %47
  %65 = load ptr, ptr %17, align 8
  %66 = icmp ne ptr %65, null
  br i1 %66, label %67, label %142

67:                                               ; preds = %64
  %68 = load ptr, ptr %17, align 8
  %69 = getelementptr inbounds %struct._zend_accel_hash_entry, ptr %68, i32 0, i32 0
  %70 = load i64, ptr %69, align 8
  %71 = load i64, ptr %15, align 8
  %72 = icmp eq i64 %70, %71
  br i1 %72, label %73, label %138

73:                                               ; preds = %67
  %74 = load ptr, ptr %17, align 8
  %75 = getelementptr inbounds %struct._zend_accel_hash_entry, ptr %74, i32 0, i32 1
  %76 = load ptr, ptr %75, align 8
  %77 = load ptr, ptr %12, align 8
  store ptr %76, ptr %7, align 8
  store ptr %77, ptr %8, align 8
  %78 = load ptr, ptr %7, align 8
  %79 = load ptr, ptr %8, align 8
  %80 = icmp eq ptr %78, %79
  br i1 %80, label %97, label %81

81:                                               ; preds = %73
  %82 = load ptr, ptr %7, align 8
  %83 = load ptr, ptr %8, align 8
  store ptr %82, ptr %5, align 8
  store ptr %83, ptr %6, align 8
  %84 = load ptr, ptr %5, align 8
  %85 = getelementptr inbounds %struct._zend_string, ptr %84, i32 0, i32 2
  %86 = load i64, ptr %85, align 8
  %87 = load ptr, ptr %6, align 8
  %88 = getelementptr inbounds %struct._zend_string, ptr %87, i32 0, i32 2
  %89 = load i64, ptr %88, align 8
  %90 = icmp eq i64 %86, %89
  br i1 %90, label %91, label %95

91:                                               ; preds = %81
  %92 = load ptr, ptr %5, align 8
  %93 = load ptr, ptr %6, align 8
  %94 = call zeroext i1 @zend_string_equal_val(ptr noundef %92, ptr noundef %93) #5
  br label %95

95:                                               ; preds = %91, %81
  %96 = phi i1 [ false, %81 ], [ %94, %91 ]
  br label %97

97:                                               ; preds = %95, %73
  %98 = phi i1 [ true, %73 ], [ %96, %95 ]
  br i1 %98, label %99, label %138

99:                                               ; preds = %97
  %100 = load ptr, ptr %17, align 8
  %101 = getelementptr inbounds %struct._zend_accel_hash_entry, ptr %100, i32 0, i32 4
  %102 = load i8, ptr %101, align 8
  %103 = trunc i8 %102 to i1
  br i1 %103, label %104, label %118

104:                                              ; preds = %99
  %105 = load ptr, ptr %18, align 8
  %106 = icmp ne ptr %105, null
  br i1 %106, label %107, label %111

107:                                              ; preds = %104
  %108 = load ptr, ptr %18, align 8
  %109 = load ptr, ptr %17, align 8
  %110 = getelementptr inbounds %struct._zend_accel_hash_entry, ptr %109, i32 0, i32 3
  store ptr %108, ptr %110, align 8
  br label %117

111:                                              ; preds = %104
  %112 = load ptr, ptr %14, align 8
  %113 = load ptr, ptr %17, align 8
  %114 = getelementptr inbounds %struct._zend_accel_hash_entry, ptr %113, i32 0, i32 3
  %115 = load ptr, ptr %114, align 8
  %116 = getelementptr inbounds %struct._zend_accel_hash_entry, ptr %115, i32 0, i32 3
  store ptr %112, ptr %116, align 8
  br label %117

117:                                              ; preds = %111, %107
  br label %136

118:                                              ; preds = %99
  %119 = load ptr, ptr %18, align 8
  %120 = icmp ne ptr %119, null
  br i1 %120, label %121, label %131

121:                                              ; preds = %118
  %122 = load ptr, ptr %11, align 8
  %123 = getelementptr inbounds %struct._zend_accel_hash, ptr %122, i32 0, i32 4
  %124 = load i32, ptr %123, align 8
  %125 = add i32 %124, -1
  store i32 %125, ptr %123, align 8
  %126 = load ptr, ptr %18, align 8
  %127 = load ptr, ptr %17, align 8
  %128 = getelementptr inbounds %struct._zend_accel_hash_entry, ptr %127, i32 0, i32 3
  store ptr %126, ptr %128, align 8
  %129 = load ptr, ptr %17, align 8
  %130 = getelementptr inbounds %struct._zend_accel_hash_entry, ptr %129, i32 0, i32 4
  store i8 1, ptr %130, align 8
  br label %135

131:                                              ; preds = %118
  %132 = load ptr, ptr %14, align 8
  %133 = load ptr, ptr %17, align 8
  %134 = getelementptr inbounds %struct._zend_accel_hash_entry, ptr %133, i32 0, i32 3
  store ptr %132, ptr %134, align 8
  br label %135

135:                                              ; preds = %131, %121
  br label %136

136:                                              ; preds = %135, %117
  %137 = load ptr, ptr %17, align 8
  store ptr %137, ptr %10, align 8
  br label %201

138:                                              ; preds = %97, %67
  %139 = load ptr, ptr %17, align 8
  %140 = getelementptr inbounds %struct._zend_accel_hash_entry, ptr %139, i32 0, i32 2
  %141 = load ptr, ptr %140, align 8
  store ptr %141, ptr %17, align 8
  br label %64

142:                                              ; preds = %64
  %143 = load ptr, ptr %11, align 8
  %144 = getelementptr inbounds %struct._zend_accel_hash, ptr %143, i32 0, i32 2
  %145 = load i32, ptr %144, align 8
  %146 = load ptr, ptr %11, align 8
  %147 = getelementptr inbounds %struct._zend_accel_hash, ptr %146, i32 0, i32 3
  %148 = load i32, ptr %147, align 4
  %149 = icmp eq i32 %145, %148
  br i1 %149, label %150, label %151

150:                                              ; preds = %142
  store ptr null, ptr %10, align 8
  br label %201

151:                                              ; preds = %142
  %152 = load ptr, ptr %11, align 8
  %153 = getelementptr inbounds %struct._zend_accel_hash, ptr %152, i32 0, i32 1
  %154 = load ptr, ptr %153, align 8
  %155 = load ptr, ptr %11, align 8
  %156 = getelementptr inbounds %struct._zend_accel_hash, ptr %155, i32 0, i32 2
  %157 = load i32, ptr %156, align 8
  %158 = add i32 %157, 1
  store i32 %158, ptr %156, align 8
  %159 = zext i32 %157 to i64
  %160 = getelementptr inbounds %struct._zend_accel_hash_entry, ptr %154, i64 %159
  store ptr %160, ptr %17, align 8
  %161 = load i8, ptr %13, align 1
  %162 = trunc i8 %161 to i1
  br i1 %162, label %163, label %169

163:                                              ; preds = %151
  %164 = load ptr, ptr %18, align 8
  %165 = load ptr, ptr %17, align 8
  %166 = getelementptr inbounds %struct._zend_accel_hash_entry, ptr %165, i32 0, i32 3
  store ptr %164, ptr %166, align 8
  %167 = load ptr, ptr %17, align 8
  %168 = getelementptr inbounds %struct._zend_accel_hash_entry, ptr %167, i32 0, i32 4
  store i8 1, ptr %168, align 8
  br label %179

169:                                              ; preds = %151
  %170 = load ptr, ptr %11, align 8
  %171 = getelementptr inbounds %struct._zend_accel_hash, ptr %170, i32 0, i32 4
  %172 = load i32, ptr %171, align 8
  %173 = add i32 %172, 1
  store i32 %173, ptr %171, align 8
  %174 = load ptr, ptr %14, align 8
  %175 = load ptr, ptr %17, align 8
  %176 = getelementptr inbounds %struct._zend_accel_hash_entry, ptr %175, i32 0, i32 3
  store ptr %174, ptr %176, align 8
  %177 = load ptr, ptr %17, align 8
  %178 = getelementptr inbounds %struct._zend_accel_hash_entry, ptr %177, i32 0, i32 4
  store i8 0, ptr %178, align 8
  br label %179

179:                                              ; preds = %169, %163
  %180 = load i64, ptr %15, align 8
  %181 = load ptr, ptr %17, align 8
  %182 = getelementptr inbounds %struct._zend_accel_hash_entry, ptr %181, i32 0, i32 0
  store i64 %180, ptr %182, align 8
  %183 = load ptr, ptr %12, align 8
  %184 = load ptr, ptr %17, align 8
  %185 = getelementptr inbounds %struct._zend_accel_hash_entry, ptr %184, i32 0, i32 1
  store ptr %183, ptr %185, align 8
  %186 = load ptr, ptr %11, align 8
  %187 = getelementptr inbounds %struct._zend_accel_hash, ptr %186, i32 0, i32 0
  %188 = load ptr, ptr %187, align 8
  %189 = load i64, ptr %16, align 8
  %190 = getelementptr inbounds ptr, ptr %188, i64 %189
  %191 = load ptr, ptr %190, align 8
  %192 = load ptr, ptr %17, align 8
  %193 = getelementptr inbounds %struct._zend_accel_hash_entry, ptr %192, i32 0, i32 2
  store ptr %191, ptr %193, align 8
  %194 = load ptr, ptr %17, align 8
  %195 = load ptr, ptr %11, align 8
  %196 = getelementptr inbounds %struct._zend_accel_hash, ptr %195, i32 0, i32 0
  %197 = load ptr, ptr %196, align 8
  %198 = load i64, ptr %16, align 8
  %199 = getelementptr inbounds ptr, ptr %197, i64 %198
  store ptr %194, ptr %199, align 8
  %200 = load ptr, ptr %17, align 8
  store ptr %200, ptr %10, align 8
  br label %201

201:                                              ; preds = %179, %150, %136
  %202 = load ptr, ptr %10, align 8
  ret ptr %202
}