; Function Attrs: nounwind uwtable
define hidden ptr @zend_accel_hash_update(ptr nocapture noundef %0, ptr noundef %1, i1 noundef zeroext %2, ptr noundef %3) local_unnamed_addr #2 {
  br i1 %2, label %.preheader, label %.loopexit

.preheader:                                       ; preds = %4
  %5 = getelementptr inbounds i8, ptr %3, i64 32
  %6 = load i8, ptr %5, align 8
  %7 = and i8 %6, 1
  %.not78 = icmp eq i8 %7, 0
  br i1 %.not78, label %.loopexit, label %.lr.ph

.lr.ph:                                           ; preds = %.preheader, %.lr.ph
  %.079 = phi ptr [ %9, %.lr.ph ], [ %3, %.preheader ]
  %8 = getelementptr inbounds i8, ptr %.079, i64 24
  %9 = load ptr, ptr %8, align 8
  %10 = getelementptr inbounds i8, ptr %9, i64 32
  %11 = load i8, ptr %10, align 8
  %12 = and i8 %11, 1
  %.not = icmp eq i8 %12, 0
  br i1 %.not, label %.loopexit, label %.lr.ph

.loopexit:                                        ; preds = %.lr.ph, %.preheader, %4
  %.1 = phi ptr [ null, %4 ], [ %3, %.preheader ], [ %9, %.lr.ph ]
  %13 = getelementptr inbounds i8, ptr %1, i64 8
  %14 = load i64, ptr %13, align 8
  %.not72 = icmp eq i64 %14, 0
  br i1 %.not72, label %15, label %17

15:                                               ; preds = %.loopexit
  %16 = tail call i64 @zend_string_hash_func(ptr noundef nonnull %1) #5
  br label %17

17:                                               ; preds = %.loopexit, %15
  %18 = phi i64 [ %16, %15 ], [ %14, %.loopexit ]
  %19 = load i64, ptr getelementptr inbounds (%struct._zend_accel_globals, ptr @accel_globals, i64 0, i32 18), align 8
  %20 = xor i64 %19, %18
  %21 = getelementptr inbounds i8, ptr %0, i64 20
  %22 = load i32, ptr %21, align 4
  %23 = zext i32 %22 to i64
  %24 = urem i64 %20, %23
  %25 = load ptr, ptr %0, align 8
  %26 = getelementptr inbounds ptr, ptr %25, i64 %24
  %.06680 = load ptr, ptr %26, align 8
  %.not7381 = icmp eq ptr %.06680, null
  br i1 %.not7381, label %._crit_edge, label %.lr.ph83

.lr.ph83:                                         ; preds = %17
  %27 = getelementptr inbounds i8, ptr %1, i64 16
  br label %28

28:                                               ; preds = %.lr.ph83, %.critedge2
  %.06682 = phi ptr [ %.06680, %.lr.ph83 ], [ %.066, %.critedge2 ]
  %29 = load i64, ptr %.06682, align 8
  %30 = icmp eq i64 %29, %20
  br i1 %30, label %31, label %.critedge2

31:                                               ; preds = %28
  %32 = getelementptr inbounds i8, ptr %.06682, i64 8
  %33 = load ptr, ptr %32, align 8
  %34 = icmp eq ptr %33, %1
  br i1 %34, label %.critedge, label %35

35:                                               ; preds = %31
  %36 = getelementptr inbounds i8, ptr %33, i64 16
  %37 = load i64, ptr %36, align 8
  %38 = load i64, ptr %27, align 8
  %39 = icmp eq i64 %37, %38
  br i1 %39, label %40, label %.critedge2

40:                                               ; preds = %35
  %41 = tail call zeroext i1 @zend_string_equal_val(ptr noundef nonnull %33, ptr noundef nonnull %1) #5
  br i1 %41, label %.critedge, label %.critedge2

.critedge:                                        ; preds = %31, %40
  %42 = getelementptr inbounds i8, ptr %.06682, i64 32
  %43 = load i8, ptr %42, align 8
  %44 = and i8 %43, 1
  %.not74 = icmp eq i8 %44, 0
  %.not75 = icmp eq ptr %.1, null
  br i1 %.not74, label %51, label %45

45:                                               ; preds = %.critedge
  %46 = getelementptr inbounds i8, ptr %.06682, i64 24
  br i1 %.not75, label %48, label %47

47:                                               ; preds = %45
  store ptr %.1, ptr %46, align 8
  br label %84

48:                                               ; preds = %45
  %49 = load ptr, ptr %46, align 8
  %50 = getelementptr inbounds i8, ptr %49, i64 24
  store ptr %3, ptr %50, align 8
  br label %84

51:                                               ; preds = %.critedge
  br i1 %.not75, label %57, label %52

52:                                               ; preds = %51
  %53 = getelementptr inbounds i8, ptr %0, i64 24
  %54 = load i32, ptr %53, align 8
  %55 = add i32 %54, -1
  store i32 %55, ptr %53, align 8
  %56 = getelementptr inbounds i8, ptr %.06682, i64 24
  store ptr %.1, ptr %56, align 8
  store i8 1, ptr %42, align 8
  br label %84

57:                                               ; preds = %51
  %58 = getelementptr inbounds i8, ptr %.06682, i64 24
  store ptr %3, ptr %58, align 8
  br label %84

.critedge2:                                       ; preds = %35, %40, %28
  %59 = getelementptr inbounds i8, ptr %.06682, i64 16
  %.066 = load ptr, ptr %59, align 8
  %.not73 = icmp eq ptr %.066, null
  br i1 %.not73, label %._crit_edge.loopexit, label %28

._crit_edge.loopexit:                             ; preds = %.critedge2
  %.pre = load i32, ptr %21, align 4
  br label %._crit_edge

._crit_edge:                                      ; preds = %._crit_edge.loopexit, %17
  %60 = phi i32 [ %.pre, %._crit_edge.loopexit ], [ %22, %17 ]
  %61 = getelementptr inbounds i8, ptr %0, i64 16
  %62 = load i32, ptr %61, align 8
  %63 = icmp eq i32 %62, %60
  br i1 %63, label %84, label %64

64:                                               ; preds = %._crit_edge
  %65 = getelementptr inbounds i8, ptr %0, i64 8
  %66 = load ptr, ptr %65, align 8
  %67 = add i32 %62, 1
  store i32 %67, ptr %61, align 8
  %68 = zext i32 %62 to i64
  %69 = getelementptr inbounds %struct._zend_accel_hash_entry, ptr %66, i64 %68
  br i1 %2, label %74, label %70

70:                                               ; preds = %64
  %71 = getelementptr inbounds i8, ptr %0, i64 24
  %72 = load i32, ptr %71, align 8
  %73 = add i32 %72, 1
  store i32 %73, ptr %71, align 8
  br label %74

74:                                               ; preds = %64, %70
  %.sink85 = phi ptr [ %3, %70 ], [ %.1, %64 ]
  %.sink = phi i8 [ 0, %70 ], [ 1, %64 ]
  %75 = getelementptr inbounds i8, ptr %69, i64 24
  store ptr %.sink85, ptr %75, align 8
  %76 = getelementptr inbounds i8, ptr %69, i64 32
  store i8 %.sink, ptr %76, align 8
  store i64 %20, ptr %69, align 8
  %77 = getelementptr inbounds i8, ptr %69, i64 8
  store ptr %1, ptr %77, align 8
  %78 = load ptr, ptr %0, align 8
  %79 = getelementptr inbounds ptr, ptr %78, i64 %24
  %80 = load ptr, ptr %79, align 8
  %81 = getelementptr inbounds i8, ptr %69, i64 16
  store ptr %80, ptr %81, align 8
  %82 = load ptr, ptr %0, align 8
  %83 = getelementptr inbounds ptr, ptr %82, i64 %24
  store ptr %69, ptr %83, align 8
  br label %84

84:                                               ; preds = %._crit_edge, %48, %47, %57, %52, %74
  %.067 = phi ptr [ %69, %74 ], [ %.06682, %52 ], [ %.06682, %57 ], [ %.06682, %47 ], [ %.06682, %48 ], [ null, %._crit_edge ]
  ret ptr %.067
}